target datalayout = "e-m:e-p270:32:32-p271:32:32-p272:64:64-i64:64-i128:128-f80:128-n8:16:32:64-S128"
target triple = "x86_64-pc-linux-gnu"

%class.OopHandle = type { ptr }
%class.JavaThread = type { %class.Thread, i8, %class.OopHandle, %class.OopHandle, %class.OopHandle, %class.OopHandle, %class.JavaFrameAnchor, ptr, %struct.JNIEnv_, ptr, ptr, ptr, ptr, ptr, ptr, ptr, ptr, %class.MemRegion, ptr, i8, ptr, ptr, ptr, i32, i32, %"struct.SafepointMechanism::ThreadData", ptr, ptr, i32, i32, i8, i8, i8, i8, i8, i8, i8, i32, i8, i32, i8, i8, i64, %union.anon, ptr, ptr, i64, i64, ptr, ptr, %class.StackOverflow, ptr, ptr, ptr, i32, i32, ptr, i32, i32, i32, ptr, ptr, i32, i64, i64, %class.StackWatermarks, %class.HandshakeState, ptr, i32, ptr, i32, i32, ptr, %class.Parker, ptr, ptr, %class.LockStack }
%class.Thread = type { %class.ThreadShadow.base, i64, [43 x i64], ptr, ptr, i32, ptr, i64, i64, %class.ThreadLocalAllocBuffer, i64, %class.ThreadHeapSampler, %class.ThreadStatisticalInfo, %class.JfrThreadLocal, ptr, ptr, ptr, ptr, ptr, ptr, i64, i32, i32, ptr, i32, i32, i32, i32, i8, ptr }
%class.ThreadShadow.base = type <{ ptr, ptr, ptr, i32 }>
%class.ThreadLocalAllocBuffer = type <{ ptr, ptr, ptr, ptr, ptr, i64, i64, i64, i64, i32, i32, i32, i32, i64, %class.AdaptiveWeightedAverage, [4 x i8] }>
%class.AdaptiveWeightedAverage = type { float, i32, i32, i8, float }
%class.ThreadHeapSampler = type { i64 }
%class.ThreadStatisticalInfo = type { i64, i64 }
%class.JfrThreadLocal = type <{ ptr, ptr, ptr, ptr, ptr, ptr, ptr, ptr, ptr, ptr, %class.RefCountHandle, i64, i64, i64, i64, i64, i64, i64, i64, i64, i64, i64, i32, i32, i32, i16, i8, i8, i8, i8, i8, [5 x i8] }>
%class.RefCountHandle = type { ptr }
%class.JavaFrameAnchor = type { ptr, ptr, ptr }
%struct.JNIEnv_ = type { ptr }
%class.MemRegion = type { ptr, i64 }
%"struct.SafepointMechanism::ThreadData" = type { i64, i64 }
%union.anon = type { ptr }
%class.StackOverflow = type { i32, ptr, ptr, ptr, ptr, ptr, ptr }
%class.StackWatermarks = type { ptr }
%class.HandshakeState = type <{ ptr, %class.FilterQueue, %class.Monitor, ptr, i8, i8, i8, [5 x i8] }>
%class.FilterQueue = type { ptr }
%class.Monitor = type { %class.Mutex }
%class.Mutex = type { ptr, %class.PlatformMonitor, ptr }
%class.PlatformMonitor = type { %class.PlatformMutex, %union.pthread_cond_t }
%class.PlatformMutex = type { %union.pthread_mutex_t }
%union.pthread_mutex_t = type { %struct.__pthread_mutex_s }
%struct.__pthread_mutex_s = type { i32, i32, i32, i32, i32, i16, i16, %struct.__pthread_internal_list }
%struct.__pthread_internal_list = type { ptr, ptr }
%union.pthread_cond_t = type { %struct.__pthread_cond_s }
%struct.__pthread_cond_s = type { %union.__atomic_wide_counter, %union.__atomic_wide_counter, [2 x i32], [2 x i32], i32, i32, [2 x i32] }
%union.__atomic_wide_counter = type { i64 }
%class.Parker = type { %class.PlatformParker }
%class.PlatformParker = type { i32, i32, [1 x %union.pthread_mutex_t], [2 x %union.pthread_cond_t] }
%class.LockStack = type { i32, i64, [8 x ptr] }
%"class.FilterQueue<HandshakeOperation *>::Node" = type { ptr, ptr }
%class.ScopedFence = type { ptr }
%"struct.Atomic::LoadImpl.5" = type { i8 }
%"struct.Atomic::PlatformOrderedLoad.6" = type { i8 }
%"struct.Atomic::LoadImpl.7" = type { i8 }
%"struct.Atomic::PlatformLoad.8" = type { i8 }

; Function Attrs: mustprogress nounwind uwtable
define internal void @_ZL16compiler_barrierv() #1 {
  call void asm sideeffect "", "~{memory},~{dirflag},~{fpsr},~{flags}"() #9, !srcloc !25
  ret void
}

; Function Attrs: mustprogress nounwind uwtable
define linkonce_odr hidden void @_ZN11OrderAccess7acquireEv() #1 comdat align 2 {
  call void @_ZL16compiler_barrierv()
  ret void
}

; Function Attrs: mustprogress nounwind uwtable
define linkonce_odr hidden void @_ZN18ScopedFenceGeneralIL15ScopedFenceType0EE7postfixEv(ptr noundef nonnull align 1 dereferenceable(1) %0) #1 comdat align 2 {
  %2 = alloca ptr, align 8
  store ptr %0, ptr %2, align 8
  call void @_ZN11OrderAccess7acquireEv()
  ret void
}

; Function Attrs: mustprogress nounwind uwtable
define linkonce_odr hidden noundef ptr @_ZNK6Atomic12PlatformLoadILm8EEclIPN11FilterQueueIP18HandshakeOperationE4NodeEEET_PVKS9_(ptr noundef nonnull align 1 dereferenceable(1) %0, ptr noundef %1) #1 comdat align 2 {
  %3 = alloca ptr, align 8
  %4 = alloca ptr, align 8
  store ptr %0, ptr %3, align 8
  store ptr %1, ptr %4, align 8
  %5 = load ptr, ptr %4, align 8
  %6 = load volatile ptr, ptr %5, align 8
  ret ptr %6
}

; Function Attrs: mustprogress nounwind uwtable
define linkonce_odr hidden void @_ZN18ScopedFenceGeneralIL15ScopedFenceType0EE6prefixEv(ptr noundef nonnull align 1 dereferenceable(1) %0) #1 comdat align 2 {
  %2 = alloca ptr, align 8
  store ptr %0, ptr %2, align 8
  ret void
}

; Function Attrs: mustprogress nounwind uwtable
define linkonce_odr hidden void @_ZN11ScopedFenceIL15ScopedFenceType0EE7postfixEv(ptr noundef nonnull align 8 dereferenceable(8) %0) #1 comdat align 2 {
  %2 = alloca ptr, align 8
  store ptr %0, ptr %2, align 8
  %3 = load ptr, ptr %2, align 8
  call void @_ZN18ScopedFenceGeneralIL15ScopedFenceType0EE7postfixEv(ptr noundef nonnull align 1 dereferenceable(1) %3)
  ret void
}

; Function Attrs: mustprogress nounwind uwtable
define linkonce_odr hidden noundef ptr @_ZNK6Atomic8LoadImplIPN11FilterQueueIP18HandshakeOperationE4NodeENS_12PlatformLoadILm8EEEvEclEPVKS6_(ptr noundef nonnull align 1 dereferenceable(1) %0, ptr noundef %1) #1 comdat align 2 {
  %3 = alloca ptr, align 8
  %4 = alloca ptr, align 8
  %5 = alloca %"struct.Atomic::PlatformLoad.8", align 1
  store ptr %0, ptr %3, align 8
  store ptr %1, ptr %4, align 8
  %6 = load ptr, ptr %4, align 8
  %7 = call noundef ptr @_ZNK6Atomic12PlatformLoadILm8EEclIPN11FilterQueueIP18HandshakeOperationE4NodeEEET_PVKS9_(ptr noundef nonnull align 1 dereferenceable(1) %5, ptr noundef %6)
  ret ptr %7
}

; Function Attrs: mustprogress nounwind uwtable
define linkonce_odr hidden void @_ZN11ScopedFenceIL15ScopedFenceType0EE6prefixEv(ptr noundef nonnull align 8 dereferenceable(8) %0) #1 comdat align 2 {
  %2 = alloca ptr, align 8
  store ptr %0, ptr %2, align 8
  %3 = load ptr, ptr %2, align 8
  call void @_ZN18ScopedFenceGeneralIL15ScopedFenceType0EE6prefixEv(ptr noundef nonnull align 1 dereferenceable(1) %3)
  ret void
}

; Function Attrs: mustprogress nounwind uwtable
define linkonce_odr hidden void @_ZN11ScopedFenceIL15ScopedFenceType0EED2Ev(ptr noundef nonnull align 8 dereferenceable(8) %0) unnamed_addr #1 comdat align 2 {
  %2 = alloca ptr, align 8
  store ptr %0, ptr %2, align 8
  %3 = load ptr, ptr %2, align 8
  call void @_ZN11ScopedFenceIL15ScopedFenceType0EE7postfixEv(ptr noundef nonnull align 8 dereferenceable(8) %3)
  ret void
}

; Function Attrs: mustprogress nounwind uwtable
define linkonce_odr hidden noundef ptr @_ZN6Atomic4loadIPN11FilterQueueIP18HandshakeOperationE4NodeEEET_PVKS7_(ptr noundef %0) #1 comdat align 2 {
  %2 = alloca ptr, align 8
  %3 = alloca %"struct.Atomic::LoadImpl.7", align 1
  store ptr %0, ptr %2, align 8
  %4 = load ptr, ptr %2, align 8
  %5 = call noundef ptr @_ZNK6Atomic8LoadImplIPN11FilterQueueIP18HandshakeOperationE4NodeENS_12PlatformLoadILm8EEEvEclEPVKS6_(ptr noundef nonnull align 1 dereferenceable(1) %3, ptr noundef %4)
  ret ptr %5
}

; Function Attrs: mustprogress nounwind uwtable
define linkonce_odr hidden void @_ZN11ScopedFenceIL15ScopedFenceType0EEC2EPv(ptr noundef nonnull align 8 dereferenceable(8) %0, ptr noundef %1) unnamed_addr #1 comdat align 2 {
  %3 = alloca ptr, align 8
  %4 = alloca ptr, align 8
  store ptr %0, ptr %3, align 8
  store ptr %1, ptr %4, align 8
  %5 = load ptr, ptr %3, align 8
  %6 = getelementptr inbounds %class.ScopedFence, ptr %5, i32 0, i32 0
  %7 = load ptr, ptr %4, align 8
  store ptr %7, ptr %6, align 8
  call void @_ZN11ScopedFenceIL15ScopedFenceType0EE6prefixEv(ptr noundef nonnull align 8 dereferenceable(8) %5)
  ret void
}

; Function Attrs: mustprogress nounwind uwtable
define linkonce_odr hidden noundef ptr @_ZNK6Atomic19PlatformOrderedLoadILm8EL15ScopedFenceType0EEclIPN11FilterQueueIP18HandshakeOperationE4NodeEEET_PVKSA_(ptr noundef nonnull align 1 dereferenceable(1) %0, ptr noundef %1) #1 comdat align 2 {
  %3 = alloca ptr, align 8
  %4 = alloca ptr, align 8
  %5 = alloca %class.ScopedFence, align 8
  store ptr %0, ptr %3, align 8
  store ptr %1, ptr %4, align 8
  %6 = load ptr, ptr %4, align 8
  call void @_ZN11ScopedFenceIL15ScopedFenceType0EEC2EPv(ptr noundef nonnull align 8 dereferenceable(8) %5, ptr noundef %6)
  %7 = load ptr, ptr %4, align 8
  %8 = call noundef ptr @_ZN6Atomic4loadIPN11FilterQueueIP18HandshakeOperationE4NodeEEET_PVKS7_(ptr noundef %7)
  call void @_ZN11ScopedFenceIL15ScopedFenceType0EED2Ev(ptr noundef nonnull align 8 dereferenceable(8) %5) #9
  ret ptr %8
}

; Function Attrs: mustprogress nounwind uwtable
define linkonce_odr hidden noundef ptr @_ZNK6Atomic8LoadImplIPN11FilterQueueIP18HandshakeOperationE4NodeENS_19PlatformOrderedLoadILm8EL15ScopedFenceType0EEEvEclEPVKS6_(ptr noundef nonnull align 1 dereferenceable(1) %0, ptr noundef %1) #1 comdat align 2 {
  %3 = alloca ptr, align 8
  %4 = alloca ptr, align 8
  %5 = alloca %"struct.Atomic::PlatformOrderedLoad.6", align 1
  store ptr %0, ptr %3, align 8
  store ptr %1, ptr %4, align 8
  %6 = load ptr, ptr %4, align 8
  %7 = call noundef ptr @_ZNK6Atomic19PlatformOrderedLoadILm8EL15ScopedFenceType0EEclIPN11FilterQueueIP18HandshakeOperationE4NodeEEET_PVKSA_(ptr noundef nonnull align 1 dereferenceable(1) %5, ptr noundef %6)
  ret ptr %7
}

; Function Attrs: mustprogress nounwind uwtable
define linkonce_odr hidden noundef ptr @_ZN6Atomic12load_acquireIPN11FilterQueueIP18HandshakeOperationE4NodeEEET_PVKS7_(ptr noundef %0) #1 comdat align 2 {
  %2 = alloca ptr, align 8
  %3 = alloca %"struct.Atomic::LoadImpl.5", align 1
  store ptr %0, ptr %2, align 8
  %4 = load ptr, ptr %2, align 8
  %5 = call noundef ptr @_ZNK6Atomic8LoadImplIPN11FilterQueueIP18HandshakeOperationE4NodeENS_19PlatformOrderedLoadILm8EL15ScopedFenceType0EEEvEclEPVKS6_(ptr noundef nonnull align 1 dereferenceable(1) %3, ptr noundef %4)
  ret ptr %5
}

; Function Attrs: mustprogress nounwind uwtable
define linkonce_odr hidden noundef ptr @_ZN11FilterQueueIP18HandshakeOperationE10load_firstEv(ptr noundef nonnull align 8 dereferenceable(8) %0) #1 comdat align 2 {
  %2 = alloca ptr, align 8
  store ptr %0, ptr %2, align 8
  %3 = load ptr, ptr %2, align 8
  %4 = getelementptr inbounds %class.FilterQueue, ptr %3, i32 0, i32 0
  %5 = call noundef ptr @_ZN6Atomic12load_acquireIPN11FilterQueueIP18HandshakeOperationE4NodeEEET_PVKS7_(ptr noundef %4)
  ret ptr %5
}

; Function Attrs: mustprogress nounwind uwtable
define linkonce_odr hidden noundef ptr @_ZN11FilterQueueIP18HandshakeOperationE4peekEv(ptr noundef nonnull align 8 dereferenceable(8) %0) #1 comdat align 2 {
  %2 = alloca ptr, align 8
  store ptr %0, ptr %2, align 8
  %3 = load ptr, ptr %2, align 8
  %4 = call noundef ptr @_ZN11FilterQueueIP18HandshakeOperationE4peekIFbS1_EEES1_RT_(ptr noundef nonnull align 8 dereferenceable(8) %3, ptr noundef nonnull @_ZN11FilterQueueIP18HandshakeOperationE9match_allES1_)
  ret ptr %4
}

; Function Attrs: mustprogress nounwind uwtable
define linkonce_odr hidden noundef ptr @_ZN11FilterQueueIP18HandshakeOperationE4peekIFbS1_EEES1_RT_(ptr noundef nonnull align 8 dereferenceable(8) %0, ptr noundef nonnull %1) #1 comdat align 2 {
  %3 = alloca ptr, align 8
  %4 = alloca ptr, align 8
  %5 = alloca ptr, align 8
  %6 = alloca ptr, align 8
  %7 = alloca ptr, align 8
  %8 = alloca ptr, align 8
  store ptr %0, ptr %4, align 8
  store ptr %1, ptr %5, align 8
  %9 = load ptr, ptr %4, align 8
  %10 = call noundef ptr @_ZN11FilterQueueIP18HandshakeOperationE10load_firstEv(ptr noundef nonnull align 8 dereferenceable(8) %9)
  store ptr %10, ptr %6, align 8
  %11 = load ptr, ptr %6, align 8
  store ptr %11, ptr %7, align 8
  store ptr null, ptr %8, align 8
  %12 = load ptr, ptr %7, align 8
  %13 = icmp eq ptr %12, null
  br i1 %13, label %14, label %15

14:                                               ; preds = %2
  store ptr null, ptr %3, align 8
  br label %39

15:                                               ; preds = %2
  br label %16

16:                                               ; preds = %28, %15
  %17 = load ptr, ptr %5, align 8
  %18 = load ptr, ptr %7, align 8
  %19 = getelementptr inbounds %"class.FilterQueue<HandshakeOperation *>::Node", ptr %18, i32 0, i32 1
  %20 = load ptr, ptr %19, align 8
  %21 = call noundef zeroext i1 %17(ptr noundef %20)
  br i1 %21, label %22, label %24

22:                                               ; preds = %16
  %23 = load ptr, ptr %7, align 8
  store ptr %23, ptr %8, align 8
  br label %24

24:                                               ; preds = %22, %16
  %25 = load ptr, ptr %7, align 8
  %26 = getelementptr inbounds %"class.FilterQueue<HandshakeOperation *>::Node", ptr %25, i32 0, i32 0
  %27 = load ptr, ptr %26, align 8
  store ptr %27, ptr %7, align 8
  br label %28

28:                                               ; preds = %24
  %29 = load ptr, ptr %7, align 8
  %30 = icmp ne ptr %29, null
  br i1 %30, label %16, label %31, !llvm.loop !13

31:                                               ; preds = %28
  %32 = load ptr, ptr %8, align 8
  %33 = icmp eq ptr %32, null
  br i1 %33, label %34, label %35

34:                                               ; preds = %31
  store ptr null, ptr %3, align 8
  br label %39

35:                                               ; preds = %31
  %36 = load ptr, ptr %8, align 8
  %37 = getelementptr inbounds %"class.FilterQueue<HandshakeOperation *>::Node", ptr %36, i32 0, i32 1
  %38 = load ptr, ptr %37, align 8
  store ptr %38, ptr %3, align 8
  br label %39

39:                                               ; preds = %35, %34, %14
  %40 = load ptr, ptr %3, align 8
  ret ptr %40
}

; Function Attrs: mustprogress nounwind uwtable
define linkonce_odr hidden noundef zeroext i1 @_ZNK10JavaThread18is_disable_suspendEv(ptr noundef nonnull align 8 dereferenceable(1800) %0) #1 comdat align 2 {
  %2 = alloca ptr, align 8
  store ptr %0, ptr %2, align 8
  %3 = load ptr, ptr %2, align 8
  %4 = getelementptr inbounds %class.JavaThread, ptr %3, i32 0, i32 35
  %5 = load i8, ptr %4, align 1
  %6 = trunc i8 %5 to i1
  ret i1 %6
}

; Function Attrs: mustprogress nounwind uwtable
define hidden noundef ptr @_ZN14HandshakeState15get_op_for_selfEbb(ptr noundef nonnull align 8 dereferenceable(131) %0, i1 noundef zeroext %1, i1 noundef zeroext %2) #1 align 2 {
  %4 = alloca ptr, align 8
  %5 = alloca ptr, align 8
  %6 = alloca i8, align 1
  %7 = alloca i8, align 1
  store ptr %0, ptr %5, align 8
  %8 = zext i1 %1 to i8
  store i8 %8, ptr %6, align 1
  %9 = zext i1 %2 to i8
  store i8 %9, ptr %7, align 1
  %10 = load ptr, ptr %5, align 8
  %11 = load i8, ptr %6, align 1
  %12 = trunc i8 %11 to i1
  br i1 %12, label %13, label %18

13:                                               ; preds = %3
  %14 = getelementptr inbounds %class.HandshakeState, ptr %10, i32 0, i32 0
  %15 = load ptr, ptr %14, align 8
  %16 = call noundef zeroext i1 @_ZNK10JavaThread18is_disable_suspendEv(ptr noundef nonnull align 8 dereferenceable(1800) %15)
  br i1 %16, label %17, label %18

17:                                               ; preds = %13
  store i8 0, ptr %6, align 1
  br label %18

18:                                               ; preds = %17, %13, %3
  %19 = load i8, ptr %6, align 1
  %20 = trunc i8 %19 to i1
  br i1 %20, label %24, label %21

21:                                               ; preds = %18
  %22 = getelementptr inbounds %class.HandshakeState, ptr %10, i32 0, i32 1
  %23 = call noundef ptr @_ZN11FilterQueueIP18HandshakeOperationE4peekIFbS1_EEES1_RT_(ptr noundef nonnull align 8 dereferenceable(8) %22, ptr noundef nonnull @_ZL36no_suspend_no_async_exception_filterP18HandshakeOperation)
  store ptr %23, ptr %4, align 8
  br label %37

24:                                               ; preds = %18
  %25 = load i8, ptr %7, align 1
  %26 = trunc i8 %25 to i1
  br i1 %26, label %27, label %34

27:                                               ; preds = %24
  %28 = getelementptr inbounds %class.HandshakeState, ptr %10, i32 0, i32 4
  %29 = load i8, ptr %28, align 8
  %30 = trunc i8 %29 to i1
  br i1 %30, label %34, label %31

31:                                               ; preds = %27
  %32 = getelementptr inbounds %class.HandshakeState, ptr %10, i32 0, i32 1
  %33 = call noundef ptr @_ZN11FilterQueueIP18HandshakeOperationE4peekEv(ptr noundef nonnull align 8 dereferenceable(8) %32)
  store ptr %33, ptr %4, align 8
  br label %37

34:                                               ; preds = %27, %24
  %35 = getelementptr inbounds %class.HandshakeState, ptr %10, i32 0, i32 1
  %36 = call noundef ptr @_ZN11FilterQueueIP18HandshakeOperationE4peekIFbS1_EEES1_RT_(ptr noundef nonnull align 8 dereferenceable(8) %35, ptr noundef nonnull @_ZL25no_async_exception_filterP18HandshakeOperation)
  store ptr %36, ptr %4, align 8
  br label %37

37:                                               ; preds = %34, %31, %21
  %38 = load ptr, ptr %4, align 8
  ret ptr %38
}

; Function Attrs: mustprogress nounwind uwtable
define hidden noundef zeroext i1 @_ZN14HandshakeState13has_operationEbb(ptr noundef nonnull align 8 dereferenceable(131) %0, i1 noundef zeroext %1, i1 noundef zeroext %2) #1 align 2 {
  %4 = alloca ptr, align 8
  %5 = alloca i8, align 1
  %6 = alloca i8, align 1
  %7 = alloca i8, align 1
  store ptr %0, ptr %4, align 8
  %8 = zext i1 %1 to i8
  store i8 %8, ptr %5, align 1
  %9 = zext i1 %2 to i8
  store i8 %9, ptr %6, align 1
  %10 = load ptr, ptr %4, align 8
  store i8 1, ptr %7, align 1
  %11 = getelementptr inbounds %class.HandshakeState, ptr %10, i32 0, i32 2
  %12 = call noundef zeroext i1 @_ZN5Mutex8try_lockEv(ptr noundef nonnull align 8 dereferenceable(104) %11)
  br i1 %12, label %13, label %22

13:                                               ; preds = %3
  %14 = load i8, ptr %5, align 1
  %15 = trunc i8 %14 to i1
  %16 = load i8, ptr %6, align 1
  %17 = trunc i8 %16 to i1
  %18 = call noundef ptr @_ZN14HandshakeState15get_op_for_selfEbb(ptr noundef nonnull align 8 dereferenceable(131) %10, i1 noundef zeroext %15, i1 noundef zeroext %17)
  %19 = icmp ne ptr %18, null
  %20 = zext i1 %19 to i8
  store i8 %20, ptr %7, align 1
  %21 = getelementptr inbounds %class.HandshakeState, ptr %10, i32 0, i32 2
  call void @_ZN5Mutex6unlockEv(ptr noundef nonnull align 8 dereferenceable(104) %21)
  br label %22

22:                                               ; preds = %13, %3
  %23 = load i8, ptr %7, align 1
  %24 = trunc i8 %23 to i1
  ret i1 %24
}