; Function Attrs: mustprogress nounwind uwtable
define hidden noundef zeroext i1 @_ZN14HandshakeState13has_operationEbb(ptr noundef nonnull align 8 dereferenceable(131) %0, i1 noundef zeroext %1, i1 noundef zeroext %2) local_unnamed_addr #0 align 2 {
  %4 = getelementptr inbounds i8, ptr %0, i64 16
  %5 = tail call noundef zeroext i1 @_ZN5Mutex8try_lockEv(ptr noundef nonnull align 8 dereferenceable(104) %4) #11
  br i1 %5, label %6, label %60

6:                                                ; preds = %3
  br i1 %1, label %7, label %.thread.i

7:                                                ; preds = %6
  %8 = load ptr, ptr %0, align 8
  %9 = getelementptr inbounds i8, ptr %8, i64 1141
  %10 = load i8, ptr %9, align 1
  %11 = trunc i8 %10 to i1
  br i1 %11, label %.thread.i, label %32

.thread.i:                                        ; preds = %7, %6
  %12 = getelementptr inbounds i8, ptr %0, i64 8
  %13 = load volatile ptr, ptr %12, align 8
  tail call void asm sideeffect "", "~{memory},~{dirflag},~{fpsr},~{flags}"() #11, !srcloc !6
  %14 = icmp eq ptr %13, null
  br i1 %14, label %_ZN14HandshakeState15get_op_for_selfEbb.exit, label %.preheader.i.i

.preheader.i.i:                                   ; preds = %.thread.i, %_ZL36no_suspend_no_async_exception_filterP18HandshakeOperation.exit.thread.i
  %.011.i.i = phi ptr [ %29, %_ZL36no_suspend_no_async_exception_filterP18HandshakeOperation.exit.thread.i ], [ %13, %.thread.i ]
  %.0.i.i = phi ptr [ %28, %_ZL36no_suspend_no_async_exception_filterP18HandshakeOperation.exit.thread.i ], [ null, %.thread.i ]
  %15 = getelementptr inbounds i8, ptr %.011.i.i, i64 8
  %16 = load ptr, ptr %15, align 8
  %17 = getelementptr inbounds i8, ptr %16, i64 8
  %18 = load ptr, ptr %17, align 8
  %19 = load ptr, ptr %18, align 8
  %20 = getelementptr inbounds i8, ptr %19, i64 32
  %21 = load ptr, ptr %20, align 8
  %22 = tail call noundef zeroext i1 %21(ptr noundef nonnull align 8 dereferenceable(16) %18) #11
  br i1 %22, label %_ZL36no_suspend_no_async_exception_filterP18HandshakeOperation.exit.thread.i, label %_ZL36no_suspend_no_async_exception_filterP18HandshakeOperation.exit.i

_ZL36no_suspend_no_async_exception_filterP18HandshakeOperation.exit.i: ; preds = %.preheader.i.i
  %23 = load ptr, ptr %17, align 8
  %24 = load ptr, ptr %23, align 8
  %25 = getelementptr inbounds i8, ptr %24, i64 40
  %26 = load ptr, ptr %25, align 8
  %27 = tail call noundef zeroext i1 %26(ptr noundef nonnull align 8 dereferenceable(16) %23) #11
  %spec.select13.i = select i1 %27, ptr %.0.i.i, ptr %.011.i.i
  br label %_ZL36no_suspend_no_async_exception_filterP18HandshakeOperation.exit.thread.i

_ZL36no_suspend_no_async_exception_filterP18HandshakeOperation.exit.thread.i: ; preds = %_ZL36no_suspend_no_async_exception_filterP18HandshakeOperation.exit.i, %.preheader.i.i
  %28 = phi ptr [ %.0.i.i, %.preheader.i.i ], [ %spec.select13.i, %_ZL36no_suspend_no_async_exception_filterP18HandshakeOperation.exit.i ]
  %29 = load ptr, ptr %.011.i.i, align 8
  %.not.i.i = icmp eq ptr %29, null
  br i1 %.not.i.i, label %30, label %.preheader.i.i, !llvm.loop !8

30:                                               ; preds = %_ZL36no_suspend_no_async_exception_filterP18HandshakeOperation.exit.thread.i
  %31 = icmp eq ptr %28, null
  br i1 %31, label %_ZN14HandshakeState15get_op_for_selfEbb.exit, label %_ZN11FilterQueueIP18HandshakeOperationE4peekIFbS1_EEES1_RT_.exit.sink.split.i

32:                                               ; preds = %7
  br i1 %2, label %33, label %42

33:                                               ; preds = %32
  %34 = getelementptr inbounds i8, ptr %0, i64 128
  %35 = load i8, ptr %34, align 8
  %36 = trunc i8 %35 to i1
  br i1 %36, label %42, label %37

37:                                               ; preds = %33
  %38 = getelementptr inbounds i8, ptr %0, i64 8
  %39 = load volatile ptr, ptr %38, align 8
  tail call void asm sideeffect "", "~{memory},~{dirflag},~{fpsr},~{flags}"() #11, !srcloc !6
  %40 = icmp eq ptr %39, null
  br i1 %40, label %_ZN14HandshakeState15get_op_for_selfEbb.exit, label %.preheader.i.i.i

.preheader.i.i.i:                                 ; preds = %37, %.preheader.i.i.i
  %.011.i.i.i = phi ptr [ %41, %.preheader.i.i.i ], [ %39, %37 ]
  %41 = load ptr, ptr %.011.i.i.i, align 8
  %.not.i.i.i = icmp eq ptr %41, null
  br i1 %.not.i.i.i, label %_ZN11FilterQueueIP18HandshakeOperationE4peekIFbS1_EEES1_RT_.exit.sink.split.i, label %.preheader.i.i.i, !llvm.loop !8

42:                                               ; preds = %33, %32
  %43 = getelementptr inbounds i8, ptr %0, i64 8
  %44 = load volatile ptr, ptr %43, align 8
  tail call void asm sideeffect "", "~{memory},~{dirflag},~{fpsr},~{flags}"() #11, !srcloc !6
  %45 = icmp eq ptr %44, null
  br i1 %45, label %_ZN14HandshakeState15get_op_for_selfEbb.exit, label %.preheader.i5.i

.preheader.i5.i:                                  ; preds = %42, %.preheader.i5.i
  %.011.i6.i = phi ptr [ %54, %.preheader.i5.i ], [ %44, %42 ]
  %.0.i7.i = phi ptr [ %spec.select.i8.i, %.preheader.i5.i ], [ null, %42 ]
  %46 = getelementptr inbounds i8, ptr %.011.i6.i, i64 8
  %47 = load ptr, ptr %46, align 8
  %48 = getelementptr inbounds i8, ptr %47, i64 8
  %49 = load ptr, ptr %48, align 8
  %50 = load ptr, ptr %49, align 8
  %51 = getelementptr inbounds i8, ptr %50, i64 40
  %52 = load ptr, ptr %51, align 8
  %53 = tail call noundef zeroext i1 %52(ptr noundef nonnull align 8 dereferenceable(16) %49) #11
  %spec.select.i8.i = select i1 %53, ptr %.0.i7.i, ptr %.011.i6.i
  %54 = load ptr, ptr %.011.i6.i, align 8
  %.not.i9.i = icmp eq ptr %54, null
  br i1 %.not.i9.i, label %55, label %.preheader.i5.i, !llvm.loop !8

55:                                               ; preds = %.preheader.i5.i
  %56 = icmp eq ptr %spec.select.i8.i, null
  br i1 %56, label %_ZN14HandshakeState15get_op_for_selfEbb.exit, label %_ZN11FilterQueueIP18HandshakeOperationE4peekIFbS1_EEES1_RT_.exit.sink.split.i

_ZN11FilterQueueIP18HandshakeOperationE4peekIFbS1_EEES1_RT_.exit.sink.split.i: ; preds = %.preheader.i.i.i, %55, %30
  %spec.select.i8.lcssa.sink.i = phi ptr [ %28, %30 ], [ %spec.select.i8.i, %55 ], [ %.011.i.i.i, %.preheader.i.i.i ]
  %57 = getelementptr inbounds i8, ptr %spec.select.i8.lcssa.sink.i, i64 8
  %58 = load ptr, ptr %57, align 8
  %59 = icmp ne ptr %58, null
  br label %_ZN14HandshakeState15get_op_for_selfEbb.exit

_ZN14HandshakeState15get_op_for_selfEbb.exit:     ; preds = %.thread.i, %30, %37, %42, %55, %_ZN11FilterQueueIP18HandshakeOperationE4peekIFbS1_EEES1_RT_.exit.sink.split.i
  %.0.i = phi i1 [ false, %.thread.i ], [ false, %30 ], [ false, %37 ], [ false, %42 ], [ false, %55 ], [ %59, %_ZN11FilterQueueIP18HandshakeOperationE4peekIFbS1_EEES1_RT_.exit.sink.split.i ]
  tail call void @_ZN5Mutex6unlockEv(ptr noundef nonnull align 8 dereferenceable(104) %4) #11
  br label %60

60:                                               ; preds = %_ZN14HandshakeState15get_op_for_selfEbb.exit, %3
  %.0 = phi i1 [ %.0.i, %_ZN14HandshakeState15get_op_for_selfEbb.exit ], [ true, %3 ]
  ret i1 %.0
}